target datalayout = "e-m:e-p270:32:32-p271:32:32-p272:64:64-i64:64-i128:128-f80:128-n8:16:32:64-S128"
target triple = "x86_64-pc-linux-gnu"

@.str.18 = private unnamed_addr constant [33 x i8] c"../openssl/test/evp_extra_test.c\00", align 1
@.str.112 = private unnamed_addr constant [2 x i8] c"0\00", align 1
@.str.365 = private unnamed_addr constant [13 x i8] c"p = BN_new()\00", align 1
@.str.367 = private unnamed_addr constant [13 x i8] c"g = BN_new()\00", align 1
@.str.376 = private unnamed_addr constant [4 x i8] c"pub\00", align 1
@.str.461 = private unnamed_addr constant [18 x i8] c"pubkey = BN_new()\00", align 1
@.str.462 = private unnamed_addr constant [21 x i8] c"BN_set_word(p, 9999)\00", align 1
@.str.463 = private unnamed_addr constant [18 x i8] c"BN_set_word(g, 2)\00", align 1
@.str.464 = private unnamed_addr constant [26 x i8] c"BN_set_word(pubkey, 4321)\00", align 1
@.str.465 = private unnamed_addr constant [17 x i8] c"noqdh = DH_new()\00", align 1
@.str.466 = private unnamed_addr constant [31 x i8] c"DH_set0_pqg(noqdh, p, NULL, g)\00", align 1
@.str.467 = private unnamed_addr constant [33 x i8] c"DH_set0_key(noqdh, pubkey, NULL)\00", align 1
@.str.468 = private unnamed_addr constant [7 x i8] c"x942dh\00", align 1
@.str.469 = private unnamed_addr constant [6 x i8] c"noqdh\00", align 1
@.str.470 = private unnamed_addr constant [6 x i8] c"pkey1\00", align 1
@.str.471 = private unnamed_addr constant [6 x i8] c"pkey2\00", align 1
@.str.472 = private unnamed_addr constant [34 x i8] c"DH_set0_key(x942dh, pubkey, NULL)\00", align 1
@.str.473 = private unnamed_addr constant [32 x i8] c"EVP_PKEY_set1_DH(pkey1, x942dh)\00", align 1
@.str.474 = private unnamed_addr constant [23 x i8] c"EVP_PKEY_get_id(pkey1)\00", align 1
@.str.475 = private unnamed_addr constant [13 x i8] c"EVP_PKEY_DHX\00", align 1
@.str.476 = private unnamed_addr constant [63 x i8] c"EVP_PKEY_get_bn_param(pkey1, OSSL_PKEY_PARAM_PUB_KEY, &pubkey)\00", align 1
@.str.477 = private unnamed_addr constant [7 x i8] c"pubkey\00", align 1
@.str.478 = private unnamed_addr constant [31 x i8] c"EVP_PKEY_set1_DH(pkey2, noqdh)\00", align 1
@.str.479 = private unnamed_addr constant [23 x i8] c"EVP_PKEY_get_id(pkey2)\00", align 1
@.str.480 = private unnamed_addr constant [12 x i8] c"EVP_PKEY_DH\00", align 1
@.str.481 = private unnamed_addr constant [88 x i8] c"EVP_PKEY_get_octet_string_param(pkey2, OSSL_PKEY_PARAM_PUB_KEY, pub, sizeof(pub), &len)\00", align 1
@.str.482 = private unnamed_addr constant [4 x i8] c"len\00", align 1

; Function Attrs: nounwind uwtable
define internal i32 @test_EVP_PKEY_set1_DH() #0 {
  %1 = alloca ptr, align 8
  %2 = alloca ptr, align 8
  %3 = alloca ptr, align 8
  %4 = alloca ptr, align 8
  %5 = alloca i32, align 4
  %6 = alloca ptr, align 8
  %7 = alloca ptr, align 8
  %8 = alloca ptr, align 8
  %9 = alloca [256 x i8], align 16
  %10 = alloca i64, align 8
  call void @llvm.lifetime.start.p0(i64 8, ptr %1) #8
  store ptr null, ptr %1, align 8, !tbaa !80
  call void @llvm.lifetime.start.p0(i64 8, ptr %2) #8
  store ptr null, ptr %2, align 8, !tbaa !80
  call void @llvm.lifetime.start.p0(i64 8, ptr %3) #8
  store ptr null, ptr %3, align 8, !tbaa !21
  call void @llvm.lifetime.start.p0(i64 8, ptr %4) #8
  store ptr null, ptr %4, align 8, !tbaa !21
  call void @llvm.lifetime.start.p0(i64 4, ptr %5) #8
  store i32 0, ptr %5, align 4, !tbaa !9
  call void @llvm.lifetime.start.p0(i64 8, ptr %6) #8
  call void @llvm.lifetime.start.p0(i64 8, ptr %7) #8
  store ptr null, ptr %7, align 8, !tbaa !79
  call void @llvm.lifetime.start.p0(i64 8, ptr %8) #8
  store ptr null, ptr %8, align 8, !tbaa !79
  call void @llvm.lifetime.start.p0(i64 256, ptr %9) #8
  call void @llvm.lifetime.start.p0(i64 8, ptr %10) #8
  store i64 0, ptr %10, align 8, !tbaa !23
  %11 = call ptr @BN_new()
  store ptr %11, ptr %6, align 8, !tbaa !79
  %12 = call i32 @test_ptr(ptr noundef @.str.18, i32 noundef 3922, ptr noundef @.str.365, ptr noundef %11)
  %13 = icmp ne i32 %12, 0
  br i1 %13, label %14, label %75

14:                                               ; preds = %0
  %15 = call ptr @BN_new()
  store ptr %15, ptr %7, align 8, !tbaa !79
  %16 = call i32 @test_ptr(ptr noundef @.str.18, i32 noundef 3923, ptr noundef @.str.367, ptr noundef %15)
  %17 = icmp ne i32 %16, 0
  br i1 %17, label %18, label %75

18:                                               ; preds = %14
  %19 = call ptr @BN_new()
  store ptr %19, ptr %8, align 8, !tbaa !79
  %20 = call i32 @test_ptr(ptr noundef @.str.18, i32 noundef 3924, ptr noundef @.str.461, ptr noundef %19)
  %21 = icmp ne i32 %20, 0
  br i1 %21, label %22, label %75

22:                                               ; preds = %18
  %23 = load ptr, ptr %6, align 8, !tbaa !79
  %24 = call i32 @BN_set_word(ptr noundef %23, i64 noundef 9999)
  %25 = icmp ne i32 %24, 0
  %26 = zext i1 %25 to i32
  %27 = call i32 @test_true(ptr noundef @.str.18, i32 noundef 3925, ptr noundef @.str.462, i32 noundef %26)
  %28 = icmp ne i32 %27, 0
  br i1 %28, label %29, label %75

29:                                               ; preds = %22
  %30 = load ptr, ptr %7, align 8, !tbaa !79
  %31 = call i32 @BN_set_word(ptr noundef %30, i64 noundef 2)
  %32 = icmp ne i32 %31, 0
  %33 = zext i1 %32 to i32
  %34 = call i32 @test_true(ptr noundef @.str.18, i32 noundef 3926, ptr noundef @.str.463, i32 noundef %33)
  %35 = icmp ne i32 %34, 0
  br i1 %35, label %36, label %75

36:                                               ; preds = %29
  %37 = load ptr, ptr %8, align 8, !tbaa !79
  %38 = call i32 @BN_set_word(ptr noundef %37, i64 noundef 4321)
  %39 = icmp ne i32 %38, 0
  %40 = zext i1 %39 to i32
  %41 = call i32 @test_true(ptr noundef @.str.18, i32 noundef 3927, ptr noundef @.str.464, i32 noundef %40)
  %42 = icmp ne i32 %41, 0
  br i1 %42, label %43, label %75

43:                                               ; preds = %36
  %44 = call ptr @DH_new()
  store ptr %44, ptr %2, align 8, !tbaa !80
  %45 = call i32 @test_ptr(ptr noundef @.str.18, i32 noundef 3928, ptr noundef @.str.465, ptr noundef %44)
  %46 = icmp ne i32 %45, 0
  br i1 %46, label %47, label %75

47:                                               ; preds = %43
  %48 = load ptr, ptr %2, align 8, !tbaa !80
  %49 = load ptr, ptr %6, align 8, !tbaa !79
  %50 = load ptr, ptr %7, align 8, !tbaa !79
  %51 = call i32 @DH_set0_pqg(ptr noundef %48, ptr noundef %49, ptr noundef null, ptr noundef %50)
  %52 = icmp ne i32 %51, 0
  %53 = zext i1 %52 to i32
  %54 = call i32 @test_true(ptr noundef @.str.18, i32 noundef 3929, ptr noundef @.str.466, i32 noundef %53)
  %55 = icmp ne i32 %54, 0
  br i1 %55, label %56, label %75

56:                                               ; preds = %47
  %57 = load ptr, ptr %2, align 8, !tbaa !80
  %58 = load ptr, ptr %8, align 8, !tbaa !79
  %59 = call i32 @DH_set0_key(ptr noundef %57, ptr noundef %58, ptr noundef null)
  %60 = icmp ne i32 %59, 0
  %61 = zext i1 %60 to i32
  %62 = call i32 @test_true(ptr noundef @.str.18, i32 noundef 3930, ptr noundef @.str.467, i32 noundef %61)
  %63 = icmp ne i32 %62, 0
  br i1 %63, label %64, label %75

64:                                               ; preds = %56
  %65 = call ptr @BN_new()
  store ptr %65, ptr %8, align 8, !tbaa !79
  %66 = call i32 @test_ptr(ptr noundef @.str.18, i32 noundef 3931, ptr noundef @.str.461, ptr noundef %65)
  %67 = icmp ne i32 %66, 0
  br i1 %67, label %68, label %75

68:                                               ; preds = %64
  %69 = load ptr, ptr %8, align 8, !tbaa !79
  %70 = call i32 @BN_set_word(ptr noundef %69, i64 noundef 4321)
  %71 = icmp ne i32 %70, 0
  %72 = zext i1 %71 to i32
  %73 = call i32 @test_true(ptr noundef @.str.18, i32 noundef 3932, ptr noundef @.str.464, i32 noundef %72)
  %74 = icmp ne i32 %73, 0
  br i1 %74, label %76, label %75

75:                                               ; preds = %68, %64, %56, %47, %43, %36, %29, %22, %18, %14, %0
  br label %158

76:                                               ; preds = %68
  store ptr null, ptr %7, align 8, !tbaa !79
  store ptr null, ptr %6, align 8, !tbaa !79
  %77 = call ptr @DH_get_2048_256()
  store ptr %77, ptr %1, align 8, !tbaa !80
  %78 = call ptr @EVP_PKEY_new()
  store ptr %78, ptr %3, align 8, !tbaa !21
  %79 = call ptr @EVP_PKEY_new()
  store ptr %79, ptr %4, align 8, !tbaa !21
  %80 = load ptr, ptr %1, align 8, !tbaa !80
  %81 = call i32 @test_ptr(ptr noundef @.str.18, i32 noundef 3939, ptr noundef @.str.468, ptr noundef %80)
  %82 = icmp ne i32 %81, 0
  br i1 %82, label %83, label %103

83:                                               ; preds = %76
  %84 = load ptr, ptr %2, align 8, !tbaa !80
  %85 = call i32 @test_ptr(ptr noundef @.str.18, i32 noundef 3940, ptr noundef @.str.469, ptr noundef %84)
  %86 = icmp ne i32 %85, 0
  br i1 %86, label %87, label %103

87:                                               ; preds = %83
  %88 = load ptr, ptr %3, align 8, !tbaa !21
  %89 = call i32 @test_ptr(ptr noundef @.str.18, i32 noundef 3941, ptr noundef @.str.470, ptr noundef %88)
  %90 = icmp ne i32 %89, 0
  br i1 %90, label %91, label %103

91:                                               ; preds = %87
  %92 = load ptr, ptr %4, align 8, !tbaa !21
  %93 = call i32 @test_ptr(ptr noundef @.str.18, i32 noundef 3942, ptr noundef @.str.471, ptr noundef %92)
  %94 = icmp ne i32 %93, 0
  br i1 %94, label %95, label %103

95:                                               ; preds = %91
  %96 = load ptr, ptr %1, align 8, !tbaa !80
  %97 = load ptr, ptr %8, align 8, !tbaa !79
  %98 = call i32 @DH_set0_key(ptr noundef %96, ptr noundef %97, ptr noundef null)
  %99 = icmp ne i32 %98, 0
  %100 = zext i1 %99 to i32
  %101 = call i32 @test_true(ptr noundef @.str.18, i32 noundef 3943, ptr noundef @.str.472, i32 noundef %100)
  %102 = icmp ne i32 %101, 0
  br i1 %102, label %104, label %103

103:                                              ; preds = %95, %91, %87, %83, %76
  br label %158

104:                                              ; preds = %95
  store ptr null, ptr %8, align 8, !tbaa !79
  %105 = load ptr, ptr %3, align 8, !tbaa !21
  %106 = load ptr, ptr %1, align 8, !tbaa !80
  %107 = call i32 @EVP_PKEY_set1_DH(ptr noundef %105, ptr noundef %106)
  %108 = icmp ne i32 %107, 0
  %109 = zext i1 %108 to i32
  %110 = call i32 @test_true(ptr noundef @.str.18, i32 noundef 3947, ptr noundef @.str.473, i32 noundef %109)
  %111 = icmp ne i32 %110, 0
  br i1 %111, label %112, label %117

112:                                              ; preds = %104
  %113 = load ptr, ptr %3, align 8, !tbaa !21
  %114 = call i32 @EVP_PKEY_get_id(ptr noundef %113)
  %115 = call i32 @test_int_eq(ptr noundef @.str.18, i32 noundef 3948, ptr noundef @.str.474, ptr noundef @.str.475, i32 noundef %114, i32 noundef 920)
  %116 = icmp ne i32 %115, 0
  br i1 %116, label %118, label %117

117:                                              ; preds = %112, %104
  br label %158

118:                                              ; preds = %112
  %119 = load ptr, ptr %3, align 8, !tbaa !21
  %120 = call i32 @EVP_PKEY_get_bn_param(ptr noundef %119, ptr noundef @.str.376, ptr noundef %8)
  %121 = icmp ne i32 %120, 0
  %122 = zext i1 %121 to i32
  %123 = call i32 @test_true(ptr noundef @.str.18, i32 noundef 3952, ptr noundef @.str.476, i32 noundef %122)
  %124 = icmp ne i32 %123, 0
  br i1 %124, label %125, label %129

125:                                              ; preds = %118
  %126 = load ptr, ptr %8, align 8, !tbaa !79
  %127 = call i32 @test_ptr(ptr noundef @.str.18, i32 noundef 3953, ptr noundef @.str.477, ptr noundef %126)
  %128 = icmp ne i32 %127, 0
  br i1 %128, label %130, label %129

129:                                              ; preds = %125, %118
  br label %158

130:                                              ; preds = %125
  %131 = load ptr, ptr %4, align 8, !tbaa !21
  %132 = load ptr, ptr %2, align 8, !tbaa !80
  %133 = call i32 @EVP_PKEY_set1_DH(ptr noundef %131, ptr noundef %132)
  %134 = icmp ne i32 %133, 0
  %135 = zext i1 %134 to i32
  %136 = call i32 @test_true(ptr noundef @.str.18, i32 noundef 3956, ptr noundef @.str.478, i32 noundef %135)
  %137 = icmp ne i32 %136, 0
  br i1 %137, label %138, label %143

138:                                              ; preds = %130
  %139 = load ptr, ptr %4, align 8, !tbaa !21
  %140 = call i32 @EVP_PKEY_get_id(ptr noundef %139)
  %141 = call i32 @test_int_eq(ptr noundef @.str.18, i32 noundef 3957, ptr noundef @.str.479, ptr noundef @.str.480, i32 noundef %140, i32 noundef 28)
  %142 = icmp ne i32 %141, 0
  br i1 %142, label %144, label %143

143:                                              ; preds = %138, %130
  br label %158

144:                                              ; preds = %138
  %145 = load ptr, ptr %4, align 8, !tbaa !21
  %146 = getelementptr inbounds [256 x i8], ptr %9, i64 0, i64 0
  %147 = call i32 @EVP_PKEY_get_octet_string_param(ptr noundef %145, ptr noundef @.str.376, ptr noundef %146, i64 noundef 256, ptr noundef %10)
  %148 = icmp ne i32 %147, 0
  %149 = zext i1 %148 to i32
  %150 = call i32 @test_true(ptr noundef @.str.18, i32 noundef 3962, ptr noundef @.str.481, i32 noundef %149)
  %151 = icmp ne i32 %150, 0
  br i1 %151, label %152, label %156

152:                                              ; preds = %144
  %153 = load i64, ptr %10, align 8, !tbaa !23
  %154 = call i32 @test_size_t_ne(ptr noundef @.str.18, i32 noundef 3963, ptr noundef @.str.482, ptr noundef @.str.112, i64 noundef %153, i64 noundef 0)
  %155 = icmp ne i32 %154, 0
  br i1 %155, label %157, label %156

156:                                              ; preds = %152, %144
  br label %158

157:                                              ; preds = %152
  store i32 1, ptr %5, align 4, !tbaa !9
  br label %158

158:                                              ; preds = %157, %156, %143, %129, %117, %103, %75
  %159 = load ptr, ptr %6, align 8, !tbaa !79
  call void @BN_free(ptr noundef %159)
  %160 = load ptr, ptr %7, align 8, !tbaa !79
  call void @BN_free(ptr noundef %160)
  %161 = load ptr, ptr %8, align 8, !tbaa !79
  call void @BN_free(ptr noundef %161)
  %162 = load ptr, ptr %3, align 8, !tbaa !21
  call void @EVP_PKEY_free(ptr noundef %162)
  %163 = load ptr, ptr %4, align 8, !tbaa !21
  call void @EVP_PKEY_free(ptr noundef %163)
  %164 = load ptr, ptr %1, align 8, !tbaa !80
  call void @DH_free(ptr noundef %164)
  %165 = load ptr, ptr %2, align 8, !tbaa !80
  call void @DH_free(ptr noundef %165)
  %166 = load i32, ptr %5, align 4, !tbaa !9
  call void @llvm.lifetime.end.p0(i64 8, ptr %10) #8
  call void @llvm.lifetime.end.p0(i64 256, ptr %9) #8
  call void @llvm.lifetime.end.p0(i64 8, ptr %8) #8
  call void @llvm.lifetime.end.p0(i64 8, ptr %7) #8
  call void @llvm.lifetime.end.p0(i64 8, ptr %6) #8
  call void @llvm.lifetime.end.p0(i64 4, ptr %5) #8
  call void @llvm.lifetime.end.p0(i64 8, ptr %4) #8
  call void @llvm.lifetime.end.p0(i64 8, ptr %3) #8
  call void @llvm.lifetime.end.p0(i64 8, ptr %2) #8
  call void @llvm.lifetime.end.p0(i64 8, ptr %1) #8
  ret i32 %166
}