; Function Attrs: nounwind uwtable
define internal range(i32 0, 2) i32 @test_EVP_PKEY_set1_DH() #1 {
  %1 = alloca ptr, align 8
  %2 = alloca [256 x i8], align 16
  %3 = alloca i64, align 8
  call void @llvm.lifetime.start.p0(i64 8, ptr nonnull %1) #9
  store ptr null, ptr %1, align 8, !tbaa !51
  call void @llvm.lifetime.start.p0(i64 256, ptr nonnull %2) #9
  call void @llvm.lifetime.start.p0(i64 8, ptr nonnull %3) #9
  store i64 0, ptr %3, align 8, !tbaa !15
  %4 = tail call ptr @BN_new() #9
  %5 = tail call i32 @test_ptr(ptr noundef nonnull @.str.18, i32 noundef 3922, ptr noundef nonnull @.str.365, ptr noundef %4) #9
  %.not = icmp eq i32 %5, 0
  br i1 %.not, label %96, label %6

6:                                                ; preds = %0
  %7 = tail call ptr @BN_new() #9
  %8 = tail call i32 @test_ptr(ptr noundef nonnull @.str.18, i32 noundef 3923, ptr noundef nonnull @.str.367, ptr noundef %7) #9
  %.not31 = icmp eq i32 %8, 0
  br i1 %.not31, label %96, label %9

9:                                                ; preds = %6
  %10 = tail call ptr @BN_new() #9
  store ptr %10, ptr %1, align 8, !tbaa !51
  %11 = tail call i32 @test_ptr(ptr noundef nonnull @.str.18, i32 noundef 3924, ptr noundef nonnull @.str.461, ptr noundef %10) #9
  %.not32 = icmp eq i32 %11, 0
  br i1 %.not32, label %96, label %12

12:                                               ; preds = %9
  %13 = tail call i32 @BN_set_word(ptr noundef %4, i64 noundef 9999) #9
  %14 = icmp ne i32 %13, 0
  %15 = zext i1 %14 to i32
  %16 = tail call i32 @test_true(ptr noundef nonnull @.str.18, i32 noundef 3925, ptr noundef nonnull @.str.462, i32 noundef %15) #9
  %.not33 = icmp eq i32 %16, 0
  br i1 %.not33, label %96, label %17

17:                                               ; preds = %12
  %18 = tail call i32 @BN_set_word(ptr noundef %7, i64 noundef 2) #9
  %19 = icmp ne i32 %18, 0
  %20 = zext i1 %19 to i32
  %21 = tail call i32 @test_true(ptr noundef nonnull @.str.18, i32 noundef 3926, ptr noundef nonnull @.str.463, i32 noundef %20) #9
  %.not34 = icmp eq i32 %21, 0
  br i1 %.not34, label %96, label %22

22:                                               ; preds = %17
  %23 = tail call i32 @BN_set_word(ptr noundef %10, i64 noundef 4321) #9
  %24 = icmp ne i32 %23, 0
  %25 = zext i1 %24 to i32
  %26 = tail call i32 @test_true(ptr noundef nonnull @.str.18, i32 noundef 3927, ptr noundef nonnull @.str.464, i32 noundef %25) #9
  %.not35 = icmp eq i32 %26, 0
  br i1 %.not35, label %96, label %27

27:                                               ; preds = %22
  %28 = tail call ptr @DH_new() #9
  %29 = tail call i32 @test_ptr(ptr noundef nonnull @.str.18, i32 noundef 3928, ptr noundef nonnull @.str.465, ptr noundef %28) #9
  %.not36 = icmp eq i32 %29, 0
  br i1 %.not36, label %96, label %30

30:                                               ; preds = %27
  %31 = tail call i32 @DH_set0_pqg(ptr noundef %28, ptr noundef %4, ptr noundef null, ptr noundef %7) #9
  %32 = icmp ne i32 %31, 0
  %33 = zext i1 %32 to i32
  %34 = tail call i32 @test_true(ptr noundef nonnull @.str.18, i32 noundef 3929, ptr noundef nonnull @.str.466, i32 noundef %33) #9
  %.not37 = icmp eq i32 %34, 0
  br i1 %.not37, label %96, label %35

35:                                               ; preds = %30
  %36 = tail call i32 @DH_set0_key(ptr noundef %28, ptr noundef %10, ptr noundef null) #9
  %37 = icmp ne i32 %36, 0
  %38 = zext i1 %37 to i32
  %39 = tail call i32 @test_true(ptr noundef nonnull @.str.18, i32 noundef 3930, ptr noundef nonnull @.str.467, i32 noundef %38) #9
  %.not38 = icmp eq i32 %39, 0
  br i1 %.not38, label %96, label %40

40:                                               ; preds = %35
  %41 = tail call ptr @BN_new() #9
  store ptr %41, ptr %1, align 8, !tbaa !51
  %42 = tail call i32 @test_ptr(ptr noundef nonnull @.str.18, i32 noundef 3931, ptr noundef nonnull @.str.461, ptr noundef %41) #9
  %.not39 = icmp eq i32 %42, 0
  br i1 %.not39, label %96, label %43

43:                                               ; preds = %40
  %44 = tail call i32 @BN_set_word(ptr noundef %41, i64 noundef 4321) #9
  %45 = icmp ne i32 %44, 0
  %46 = zext i1 %45 to i32
  %47 = tail call i32 @test_true(ptr noundef nonnull @.str.18, i32 noundef 3932, ptr noundef nonnull @.str.464, i32 noundef %46) #9
  %.not40 = icmp eq i32 %47, 0
  br i1 %.not40, label %96, label %48

48:                                               ; preds = %43
  %49 = tail call ptr @DH_get_2048_256() #9
  %50 = tail call ptr @EVP_PKEY_new() #9
  %51 = tail call ptr @EVP_PKEY_new() #9
  %52 = tail call i32 @test_ptr(ptr noundef nonnull @.str.18, i32 noundef 3939, ptr noundef nonnull @.str.468, ptr noundef %49) #9
  %.not41 = icmp eq i32 %52, 0
  br i1 %.not41, label %96, label %53

53:                                               ; preds = %48
  %54 = tail call i32 @test_ptr(ptr noundef nonnull @.str.18, i32 noundef 3940, ptr noundef nonnull @.str.469, ptr noundef %28) #9
  %.not42 = icmp eq i32 %54, 0
  br i1 %.not42, label %96, label %55

55:                                               ; preds = %53
  %56 = tail call i32 @test_ptr(ptr noundef nonnull @.str.18, i32 noundef 3941, ptr noundef nonnull @.str.470, ptr noundef %50) #9
  %.not43 = icmp eq i32 %56, 0
  br i1 %.not43, label %96, label %57

57:                                               ; preds = %55
  %58 = tail call i32 @test_ptr(ptr noundef nonnull @.str.18, i32 noundef 3942, ptr noundef nonnull @.str.471, ptr noundef %51) #9
  %.not44 = icmp eq i32 %58, 0
  br i1 %.not44, label %96, label %59

59:                                               ; preds = %57
  %60 = tail call i32 @DH_set0_key(ptr noundef %49, ptr noundef %41, ptr noundef null) #9
  %61 = icmp ne i32 %60, 0
  %62 = zext i1 %61 to i32
  %63 = tail call i32 @test_true(ptr noundef nonnull @.str.18, i32 noundef 3943, ptr noundef nonnull @.str.472, i32 noundef %62) #9
  %.not45 = icmp eq i32 %63, 0
  br i1 %.not45, label %96, label %64

64:                                               ; preds = %59
  store ptr null, ptr %1, align 8, !tbaa !51
  %65 = tail call i32 @EVP_PKEY_set1_DH(ptr noundef %50, ptr noundef %49) #9
  %66 = icmp ne i32 %65, 0
  %67 = zext i1 %66 to i32
  %68 = tail call i32 @test_true(ptr noundef nonnull @.str.18, i32 noundef 3947, ptr noundef nonnull @.str.473, i32 noundef %67) #9
  %.not46 = icmp eq i32 %68, 0
  br i1 %.not46, label %96, label %69

69:                                               ; preds = %64
  %70 = tail call i32 @EVP_PKEY_get_id(ptr noundef %50) #9
  %71 = tail call i32 @test_int_eq(ptr noundef nonnull @.str.18, i32 noundef 3948, ptr noundef nonnull @.str.474, ptr noundef nonnull @.str.475, i32 noundef %70, i32 noundef 920) #9
  %.not47 = icmp eq i32 %71, 0
  br i1 %.not47, label %96, label %72

72:                                               ; preds = %69
  %73 = call i32 @EVP_PKEY_get_bn_param(ptr noundef %50, ptr noundef nonnull @.str.376, ptr noundef nonnull %1) #9
  %74 = icmp ne i32 %73, 0
  %75 = zext i1 %74 to i32
  %76 = call i32 @test_true(ptr noundef nonnull @.str.18, i32 noundef 3952, ptr noundef nonnull @.str.476, i32 noundef %75) #9
  %.not48 = icmp eq i32 %76, 0
  br i1 %.not48, label %96, label %77

77:                                               ; preds = %72
  %78 = load ptr, ptr %1, align 8, !tbaa !51
  %79 = call i32 @test_ptr(ptr noundef nonnull @.str.18, i32 noundef 3953, ptr noundef nonnull @.str.477, ptr noundef %78) #9
  %.not49 = icmp eq i32 %79, 0
  br i1 %.not49, label %96, label %80

80:                                               ; preds = %77
  %81 = call i32 @EVP_PKEY_set1_DH(ptr noundef %51, ptr noundef %28) #9
  %82 = icmp ne i32 %81, 0
  %83 = zext i1 %82 to i32
  %84 = call i32 @test_true(ptr noundef nonnull @.str.18, i32 noundef 3956, ptr noundef nonnull @.str.478, i32 noundef %83) #9
  %.not50 = icmp eq i32 %84, 0
  br i1 %.not50, label %96, label %85

85:                                               ; preds = %80
  %86 = call i32 @EVP_PKEY_get_id(ptr noundef %51) #9
  %87 = call i32 @test_int_eq(ptr noundef nonnull @.str.18, i32 noundef 3957, ptr noundef nonnull @.str.479, ptr noundef nonnull @.str.480, i32 noundef %86, i32 noundef 28) #9
  %.not51 = icmp eq i32 %87, 0
  br i1 %.not51, label %96, label %88

88:                                               ; preds = %85
  %89 = call i32 @EVP_PKEY_get_octet_string_param(ptr noundef %51, ptr noundef nonnull @.str.376, ptr noundef nonnull %2, i64 noundef 256, ptr noundef nonnull %3) #9
  %90 = icmp ne i32 %89, 0
  %91 = zext i1 %90 to i32
  %92 = call i32 @test_true(ptr noundef nonnull @.str.18, i32 noundef 3962, ptr noundef nonnull @.str.481, i32 noundef %91) #9
  %.not52 = icmp eq i32 %92, 0
  br i1 %.not52, label %96, label %93

93:                                               ; preds = %88
  %94 = load i64, ptr %3, align 8, !tbaa !15
  %95 = call i32 @test_size_t_ne(ptr noundef nonnull @.str.18, i32 noundef 3963, ptr noundef nonnull @.str.482, ptr noundef nonnull @.str.112, i64 noundef %94, i64 noundef 0) #9
  %.not53 = icmp ne i32 %95, 0
  %spec.select = zext i1 %.not53 to i32
  br label %96

96:                                               ; preds = %93, %88, %80, %85, %72, %77, %64, %69, %48, %53, %55, %57, %59, %0, %6, %9, %12, %17, %22, %27, %30, %35, %40, %43
  %.030 = phi ptr [ %49, %88 ], [ %49, %85 ], [ %49, %80 ], [ %49, %77 ], [ %49, %72 ], [ %49, %69 ], [ %49, %64 ], [ %49, %59 ], [ %49, %57 ], [ %49, %55 ], [ %49, %53 ], [ %49, %48 ], [ null, %43 ], [ null, %40 ], [ null, %35 ], [ null, %30 ], [ null, %27 ], [ null, %22 ], [ null, %17 ], [ null, %12 ], [ null, %9 ], [ null, %6 ], [ null, %0 ], [ %49, %93 ]
  %.029 = phi ptr [ %28, %88 ], [ %28, %85 ], [ %28, %80 ], [ %28, %77 ], [ %28, %72 ], [ %28, %69 ], [ %28, %64 ], [ %28, %59 ], [ %28, %57 ], [ %28, %55 ], [ %28, %53 ], [ %28, %48 ], [ %28, %43 ], [ %28, %40 ], [ %28, %35 ], [ %28, %30 ], [ %28, %27 ], [ null, %22 ], [ null, %17 ], [ null, %12 ], [ null, %9 ], [ null, %6 ], [ null, %0 ], [ %28, %93 ]
  %.028 = phi ptr [ %50, %88 ], [ %50, %85 ], [ %50, %80 ], [ %50, %77 ], [ %50, %72 ], [ %50, %69 ], [ %50, %64 ], [ %50, %59 ], [ %50, %57 ], [ %50, %55 ], [ %50, %53 ], [ %50, %48 ], [ null, %43 ], [ null, %40 ], [ null, %35 ], [ null, %30 ], [ null, %27 ], [ null, %22 ], [ null, %17 ], [ null, %12 ], [ null, %9 ], [ null, %6 ], [ null, %0 ], [ %50, %93 ]
  %.027 = phi ptr [ %51, %88 ], [ %51, %85 ], [ %51, %80 ], [ %51, %77 ], [ %51, %72 ], [ %51, %69 ], [ %51, %64 ], [ %51, %59 ], [ %51, %57 ], [ %51, %55 ], [ %51, %53 ], [ %51, %48 ], [ null, %43 ], [ null, %40 ], [ null, %35 ], [ null, %30 ], [ null, %27 ], [ null, %22 ], [ null, %17 ], [ null, %12 ], [ null, %9 ], [ null, %6 ], [ null, %0 ], [ %51, %93 ]
  %.026 = phi i32 [ 0, %88 ], [ 0, %85 ], [ 0, %80 ], [ 0, %77 ], [ 0, %72 ], [ 0, %69 ], [ 0, %64 ], [ 0, %59 ], [ 0, %57 ], [ 0, %55 ], [ 0, %53 ], [ 0, %48 ], [ 0, %43 ], [ 0, %40 ], [ 0, %35 ], [ 0, %30 ], [ 0, %27 ], [ 0, %22 ], [ 0, %17 ], [ 0, %12 ], [ 0, %9 ], [ 0, %6 ], [ 0, %0 ], [ %spec.select, %93 ]
  %.025 = phi ptr [ null, %88 ], [ null, %85 ], [ null, %80 ], [ null, %77 ], [ null, %72 ], [ null, %69 ], [ null, %64 ], [ null, %59 ], [ null, %57 ], [ null, %55 ], [ null, %53 ], [ null, %48 ], [ %4, %43 ], [ %4, %40 ], [ %4, %35 ], [ %4, %30 ], [ %4, %27 ], [ %4, %22 ], [ %4, %17 ], [ %4, %12 ], [ %4, %9 ], [ %4, %6 ], [ %4, %0 ], [ null, %93 ]
  %.0 = phi ptr [ null, %88 ], [ null, %85 ], [ null, %80 ], [ null, %77 ], [ null, %72 ], [ null, %69 ], [ null, %64 ], [ null, %59 ], [ null, %57 ], [ null, %55 ], [ null, %53 ], [ null, %48 ], [ %7, %43 ], [ %7, %40 ], [ %7, %35 ], [ %7, %30 ], [ %7, %27 ], [ %7, %22 ], [ %7, %17 ], [ %7, %12 ], [ %7, %9 ], [ %7, %6 ], [ null, %0 ], [ null, %93 ]
  call void @BN_free(ptr noundef %.025) #9
  call void @BN_free(ptr noundef %.0) #9
  %97 = load ptr, ptr %1, align 8, !tbaa !51
  call void @BN_free(ptr noundef %97) #9
  call void @EVP_PKEY_free(ptr noundef %.028) #9
  call void @EVP_PKEY_free(ptr noundef %.027) #9
  call void @DH_free(ptr noundef %.030) #9
  call void @DH_free(ptr noundef %.029) #9
  call void @llvm.lifetime.end.p0(i64 8, ptr nonnull %3) #9
  call void @llvm.lifetime.end.p0(i64 256, ptr nonnull %2) #9
  call void @llvm.lifetime.end.p0(i64 8, ptr nonnull %1) #9
  ret i32 %.026
}